; Function Attrs: mustprogress nounwind uwtable
define internal void @_ZNSt6thread11_State_implINS_8_InvokerISt5tupleIJZN12_GLOBAL__N_14Impl23startProcessingMessagesERKSt8functionIFvvEEEUlvE_EEEEED2Ev(ptr noundef nonnull align 8 dereferenceable(48) %0) unnamed_addr #11 align 2 personality ptr @__gxx_personality_v0 {
  store ptr getelementptr inbounds ({ [5 x ptr] }, ptr @_ZTVNSt6thread11_State_implINS_8_InvokerISt5tupleIJZN12_GLOBAL__N_14Impl23startProcessingMessagesERKSt8functionIFvvEEEUlvE_EEEEEE, i64 0, i32 0, i64 2), ptr %0, align 8
  %2 = getelementptr inbounds i8, ptr %0, i64 32
  %3 = load ptr, ptr %2, align 8
  %.not.i.i.i.i.i.i.i = icmp eq ptr %3, null
  br i1 %.not.i.i.i.i.i.i.i, label %_ZNSt6thread8_InvokerISt5tupleIJZN12_GLOBAL__N_14Impl23startProcessingMessagesERKSt8functionIFvvEEEUlvE_EEED2Ev.exit, label %4

4:                                                ; preds = %1
  %5 = getelementptr inbounds i8, ptr %0, i64 16
  %6 = invoke noundef zeroext i1 %3(ptr noundef nonnull align 8 dereferenceable(16) %5, ptr noundef nonnull align 8 dereferenceable(16) %5, i32 noundef 3)
          to label %_ZNSt6thread8_InvokerISt5tupleIJZN12_GLOBAL__N_14Impl23startProcessingMessagesERKSt8functionIFvvEEEUlvE_EEED2Ev.exit unwind label %7

7:                                                ; preds = %4
  %8 = landingpad { ptr, i32 }
          catch ptr null
  %9 = extractvalue { ptr, i32 } %8, 0
  tail call void @__clang_call_terminate(ptr %9) #23
  unreachable

_ZNSt6thread8_InvokerISt5tupleIJZN12_GLOBAL__N_14Impl23startProcessingMessagesERKSt8functionIFvvEEEUlvE_EEED2Ev.exit: ; preds = %1, %4
  tail call void @_ZNSt6thread6_StateD2Ev(ptr noundef nonnull align 8 dereferenceable(8) %0) #22
  ret void
}